target datalayout = "e-m:e-p270:32:32-p271:32:32-p272:64:64-i64:64-i128:128-f80:128-n8:16:32:64-S128"
target triple = "x86_64-pc-linux-gnu"

%struct.ps_prochandle = type { ptr, i32, i32, ptr, ptr, i32, ptr, ptr }
%struct.thread_info = type { i32, %struct.user_regs_struct, ptr }
%struct.user_regs_struct = type { i64, i64, i64, i64, i64, i64, i64, i64, i64, i64, i64, i64, i64, i64, i64, i64, i64, i64, i64, i64, i64, i64, i64, i64, i64, i64, i64 }

@.str.12 = private unnamed_addr constant [39 x i8] c"can't allocate memory for thread_info\0A\00", align 1

; Function Attrs: nounwind uwtable
define hidden ptr @add_thread_info(ptr noundef %0, i32 noundef %1) #0 {
  %3 = alloca ptr, align 8
  %4 = alloca ptr, align 8
  %5 = alloca i32, align 4
  %6 = alloca ptr, align 8
  store ptr %0, ptr %4, align 8
  store i32 %1, ptr %5, align 4
  %7 = call noalias ptr @calloc(i64 noundef 1, i64 noundef 232) #8
  store ptr %7, ptr %6, align 8
  %8 = icmp eq ptr %7, null
  br i1 %8, label %9, label %10

9:                                                ; preds = %2
  call void (ptr, ...) @print_debug(ptr noundef @.str.12)
  store ptr null, ptr %3, align 8
  br label %27

10:                                               ; preds = %2
  %11 = load i32, ptr %5, align 4
  %12 = load ptr, ptr %6, align 8
  %13 = getelementptr inbounds %struct.thread_info, ptr %12, i32 0, i32 0
  store i32 %11, ptr %13, align 8
  %14 = load ptr, ptr %4, align 8
  %15 = getelementptr inbounds %struct.ps_prochandle, ptr %14, i32 0, i32 6
  %16 = load ptr, ptr %15, align 8
  %17 = load ptr, ptr %6, align 8
  %18 = getelementptr inbounds %struct.thread_info, ptr %17, i32 0, i32 2
  store ptr %16, ptr %18, align 8
  %19 = load ptr, ptr %6, align 8
  %20 = load ptr, ptr %4, align 8
  %21 = getelementptr inbounds %struct.ps_prochandle, ptr %20, i32 0, i32 6
  store ptr %19, ptr %21, align 8
  %22 = load ptr, ptr %4, align 8
  %23 = getelementptr inbounds %struct.ps_prochandle, ptr %22, i32 0, i32 5
  %24 = load i32, ptr %23, align 8
  %25 = add nsw i32 %24, 1
  store i32 %25, ptr %23, align 8
  %26 = load ptr, ptr %6, align 8
  store ptr %26, ptr %3, align 8
  br label %27

27:                                               ; preds = %10, %9
  %28 = load ptr, ptr %3, align 8
  ret ptr %28
}