; Function Attrs: nofree nounwind uwtable
define hidden noundef ptr @add_thread_info(ptr nocapture noundef %0, i32 noundef %1) local_unnamed_addr #0 {
  %3 = tail call noalias dereferenceable_or_null(232) ptr @calloc(i64 noundef 1, i64 noundef 232) #25
  %4 = icmp eq ptr %3, null
  br i1 %4, label %5, label %6

5:                                                ; preds = %2
  tail call void (ptr, ...) @print_debug(ptr noundef nonnull @.str.12)
  br label %13

6:                                                ; preds = %2
  store i32 %1, ptr %3, align 8
  %7 = getelementptr inbounds i8, ptr %0, i64 40
  %8 = load ptr, ptr %7, align 8
  %9 = getelementptr inbounds i8, ptr %3, i64 224
  store ptr %8, ptr %9, align 8
  store ptr %3, ptr %7, align 8
  %10 = getelementptr inbounds i8, ptr %0, i64 32
  %11 = load i32, ptr %10, align 8
  %12 = add nsw i32 %11, 1
  store i32 %12, ptr %10, align 8
  br label %13

13:                                               ; preds = %6, %5
  ret ptr %3
}